target datalayout = "e-m:e-p270:32:32-p271:32:32-p272:64:64-i64:64-i128:128-f80:128-n8:16:32:64-S128"
target triple = "x86_64-pc-linux-gnu"

%struct.H5D_earray_filt_elmt_t = type { i64, i32, i32 }
%struct.H5D_earray_ctx_t = type { i64, i64 }

@H5D_init_g = external global i8, align 1
@H5_libterm_g = external global i8, align 1

; Function Attrs: nounwind uwtable
define internal i32 @H5D__earray_filt_encode(ptr noundef %0, ptr noundef %1, i64 noundef %2, ptr noundef %3) #0 {
  %5 = alloca ptr, align 8
  %6 = alloca ptr, align 8
  %7 = alloca i64, align 8
  %8 = alloca ptr, align 8
  %9 = alloca ptr, align 8
  %10 = alloca ptr, align 8
  %11 = alloca ptr, align 8
  %12 = alloca i64, align 8
  %13 = alloca i64, align 8
  %14 = alloca ptr, align 8
  store ptr %0, ptr %5, align 8, !tbaa !80
  store ptr %1, ptr %6, align 8, !tbaa !80
  store i64 %2, ptr %7, align 8, !tbaa !10
  store ptr %3, ptr %8, align 8, !tbaa !80
  call void @llvm.lifetime.start.p0(i64 8, ptr %9) #8
  %15 = load ptr, ptr %8, align 8, !tbaa !80
  store ptr %15, ptr %9, align 8, !tbaa !107
  call void @llvm.lifetime.start.p0(i64 8, ptr %10) #8
  %16 = load ptr, ptr %5, align 8, !tbaa !80
  store ptr %16, ptr %10, align 8, !tbaa !113
  call void @llvm.lifetime.start.p0(i64 8, ptr %11) #8
  %17 = load ptr, ptr %6, align 8, !tbaa !80
  store ptr %17, ptr %11, align 8, !tbaa !120
  %18 = load i8, ptr @H5D_init_g, align 1, !tbaa !14, !range !16, !noundef !17
  %19 = trunc i8 %18 to i1
  br i1 %19, label %24, label %20

20:                                               ; preds = %4
  %21 = load i8, ptr @H5_libterm_g, align 1, !tbaa !14, !range !16, !noundef !17
  %22 = trunc i8 %21 to i1
  %23 = xor i1 %22, true
  br label %24

24:                                               ; preds = %20, %4
  %25 = phi i1 [ true, %4 ], [ %23, %20 ]
  %26 = xor i1 %25, true
  %27 = xor i1 %26, true
  %28 = zext i1 %27 to i32
  %29 = sext i32 %28 to i64
  %30 = call i64 @llvm.expect.i64(i64 %29, i64 1)
  %31 = icmp ne i64 %30, 0
  br i1 %31, label %32, label %117

32:                                               ; preds = %24
  br label %33

33:                                               ; preds = %111, %32
  %34 = load i64, ptr %7, align 8, !tbaa !10
  %35 = icmp ne i64 %34, 0
  br i1 %35, label %36, label %116

36:                                               ; preds = %33
  %37 = load ptr, ptr %9, align 8, !tbaa !107
  %38 = getelementptr inbounds nuw %struct.H5D_earray_ctx_t, ptr %37, i32 0, i32 0
  %39 = load i64, ptr %38, align 8, !tbaa !109
  %40 = load ptr, ptr %11, align 8, !tbaa !120
  %41 = getelementptr inbounds nuw %struct.H5D_earray_filt_elmt_t, ptr %40, i32 0, i32 0
  %42 = load i64, ptr %41, align 8, !tbaa !66
  call void @H5F_addr_encode_len(i64 noundef %39, ptr noundef %10, i64 noundef %42)
  br label %43

43:                                               ; preds = %36
  call void @llvm.lifetime.start.p0(i64 8, ptr %12) #8
  %44 = load ptr, ptr %11, align 8, !tbaa !120
  %45 = getelementptr inbounds nuw %struct.H5D_earray_filt_elmt_t, ptr %44, i32 0, i32 1
  %46 = load i32, ptr %45, align 8, !tbaa !69
  %47 = zext i32 %46 to i64
  store i64 %47, ptr %12, align 8, !tbaa !10
  call void @llvm.lifetime.start.p0(i64 8, ptr %13) #8
  call void @llvm.lifetime.start.p0(i64 8, ptr %14) #8
  %48 = load ptr, ptr %10, align 8, !tbaa !113
  store ptr %48, ptr %14, align 8, !tbaa !113
  store i64 0, ptr %13, align 8, !tbaa !10
  br label %49

49:                                               ; preds = %61, %43
  %50 = load i64, ptr %13, align 8, !tbaa !10
  %51 = load ptr, ptr %9, align 8, !tbaa !107
  %52 = getelementptr inbounds nuw %struct.H5D_earray_ctx_t, ptr %51, i32 0, i32 1
  %53 = load i64, ptr %52, align 8, !tbaa !111
  %54 = icmp ult i64 %50, %53
  br i1 %54, label %55, label %66

55:                                               ; preds = %49
  %56 = load i64, ptr %12, align 8, !tbaa !10
  %57 = and i64 %56, 255
  %58 = trunc i64 %57 to i8
  %59 = load ptr, ptr %14, align 8, !tbaa !113
  %60 = getelementptr inbounds nuw i8, ptr %59, i32 1
  store ptr %60, ptr %14, align 8, !tbaa !113
  store i8 %58, ptr %59, align 1, !tbaa !26
  br label %61

61:                                               ; preds = %55
  %62 = load i64, ptr %13, align 8, !tbaa !10
  %63 = add i64 %62, 1
  store i64 %63, ptr %13, align 8, !tbaa !10
  %64 = load i64, ptr %12, align 8, !tbaa !10
  %65 = lshr i64 %64, 8
  store i64 %65, ptr %12, align 8, !tbaa !10
  br label %49, !llvm.loop !122

66:                                               ; preds = %49
  %67 = load ptr, ptr %10, align 8, !tbaa !113
  %68 = load ptr, ptr %9, align 8, !tbaa !107
  %69 = getelementptr inbounds nuw %struct.H5D_earray_ctx_t, ptr %68, i32 0, i32 1
  %70 = load i64, ptr %69, align 8, !tbaa !111
  %71 = getelementptr inbounds nuw i8, ptr %67, i64 %70
  store ptr %71, ptr %10, align 8, !tbaa !113
  call void @llvm.lifetime.end.p0(i64 8, ptr %14) #8
  call void @llvm.lifetime.end.p0(i64 8, ptr %13) #8
  call void @llvm.lifetime.end.p0(i64 8, ptr %12) #8
  br label %72

72:                                               ; preds = %66
  br label %73

73:                                               ; preds = %72
  br label %74

74:                                               ; preds = %73
  %75 = load ptr, ptr %11, align 8, !tbaa !120
  %76 = getelementptr inbounds nuw %struct.H5D_earray_filt_elmt_t, ptr %75, i32 0, i32 2
  %77 = load i32, ptr %76, align 4, !tbaa !71
  %78 = and i32 %77, 255
  %79 = trunc i32 %78 to i8
  %80 = load ptr, ptr %10, align 8, !tbaa !113
  store i8 %79, ptr %80, align 1, !tbaa !26
  %81 = load ptr, ptr %10, align 8, !tbaa !113
  %82 = getelementptr inbounds nuw i8, ptr %81, i32 1
  store ptr %82, ptr %10, align 8, !tbaa !113
  %83 = load ptr, ptr %11, align 8, !tbaa !120
  %84 = getelementptr inbounds nuw %struct.H5D_earray_filt_elmt_t, ptr %83, i32 0, i32 2
  %85 = load i32, ptr %84, align 4, !tbaa !71
  %86 = lshr i32 %85, 8
  %87 = and i32 %86, 255
  %88 = trunc i32 %87 to i8
  %89 = load ptr, ptr %10, align 8, !tbaa !113
  store i8 %88, ptr %89, align 1, !tbaa !26
  %90 = load ptr, ptr %10, align 8, !tbaa !113
  %91 = getelementptr inbounds nuw i8, ptr %90, i32 1
  store ptr %91, ptr %10, align 8, !tbaa !113
  %92 = load ptr, ptr %11, align 8, !tbaa !120
  %93 = getelementptr inbounds nuw %struct.H5D_earray_filt_elmt_t, ptr %92, i32 0, i32 2
  %94 = load i32, ptr %93, align 4, !tbaa !71
  %95 = lshr i32 %94, 16
  %96 = and i32 %95, 255
  %97 = trunc i32 %96 to i8
  %98 = load ptr, ptr %10, align 8, !tbaa !113
  store i8 %97, ptr %98, align 1, !tbaa !26
  %99 = load ptr, ptr %10, align 8, !tbaa !113
  %100 = getelementptr inbounds nuw i8, ptr %99, i32 1
  store ptr %100, ptr %10, align 8, !tbaa !113
  %101 = load ptr, ptr %11, align 8, !tbaa !120
  %102 = getelementptr inbounds nuw %struct.H5D_earray_filt_elmt_t, ptr %101, i32 0, i32 2
  %103 = load i32, ptr %102, align 4, !tbaa !71
  %104 = lshr i32 %103, 24
  %105 = and i32 %104, 255
  %106 = trunc i32 %105 to i8
  %107 = load ptr, ptr %10, align 8, !tbaa !113
  store i8 %106, ptr %107, align 1, !tbaa !26
  %108 = load ptr, ptr %10, align 8, !tbaa !113
  %109 = getelementptr inbounds nuw i8, ptr %108, i32 1
  store ptr %109, ptr %10, align 8, !tbaa !113
  br label %110

110:                                              ; preds = %74
  br label %111

111:                                              ; preds = %110
  %112 = load ptr, ptr %11, align 8, !tbaa !120
  %113 = getelementptr inbounds nuw %struct.H5D_earray_filt_elmt_t, ptr %112, i32 1
  store ptr %113, ptr %11, align 8, !tbaa !120
  %114 = load i64, ptr %7, align 8, !tbaa !10
  %115 = add i64 %114, -1
  store i64 %115, ptr %7, align 8, !tbaa !10
  br label %33, !llvm.loop !123

116:                                              ; preds = %33
  br label %117

117:                                              ; preds = %116, %24
  call void @llvm.lifetime.end.p0(i64 8, ptr %11) #8
  call void @llvm.lifetime.end.p0(i64 8, ptr %10) #8
  call void @llvm.lifetime.end.p0(i64 8, ptr %9) #8
  ret i32 0
}